target datalayout = "e-m:e-p270:32:32-p271:32:32-p272:64:64-i64:64-i128:128-f80:128-n8:16:32:64-S128"
target triple = "x86_64-pc-linux-gnu"

%struct._Node = type { %union.anon.2 }
%union.anon.2 = type { %struct.BagNode }
%struct.BagNode = type { i32, i32, ptr, ptr, i32, %union.anon.4, i32, i32, i32, i32, i32 }
%union.anon.4 = type { %struct.anon.7 }
%struct.anon.7 = type { ptr, ptr }
%struct.anon.3 = type { i32, i32, ptr, ptr }
%struct.StrNode = type { i32, i32, ptr, ptr, ptr, i32, [24 x i8], i32 }
%struct.CClassNode = type { i32, i32, ptr, i32, [8 x i32], ptr }
%struct._BBuf = type { ptr, i32, i32 }

; Function Attrs: nounwind uwtable
define internal void @bbuf_free(ptr noundef %0) #0 {
  %2 = alloca ptr, align 8
  store ptr %0, ptr %2, align 8, !tbaa !123
  %3 = load ptr, ptr %2, align 8, !tbaa !123
  %4 = icmp ne ptr %3, null
  br i1 %4, label %5, label %16

5:                                                ; preds = %1
  %6 = load ptr, ptr %2, align 8, !tbaa !123
  %7 = getelementptr inbounds nuw %struct._BBuf, ptr %6, i32 0, i32 0
  %8 = load ptr, ptr %7, align 8, !tbaa !127
  %9 = icmp ne ptr %8, null
  br i1 %9, label %10, label %14

10:                                               ; preds = %5
  %11 = load ptr, ptr %2, align 8, !tbaa !123
  %12 = getelementptr inbounds nuw %struct._BBuf, ptr %11, i32 0, i32 0
  %13 = load ptr, ptr %12, align 8, !tbaa !127
  call void @free(ptr noundef %13) #8
  br label %14

14:                                               ; preds = %10, %5
  %15 = load ptr, ptr %2, align 8, !tbaa !123
  call void @free(ptr noundef %15) #8
  br label %16

16:                                               ; preds = %14, %1
  ret void
}

; Function Attrs: nounwind uwtable
define internal i32 @bbuf_init(ptr noundef %0, i32 noundef %1) #0 {
  %3 = alloca i32, align 4
  %4 = alloca ptr, align 8
  %5 = alloca i32, align 4
  store ptr %0, ptr %4, align 8, !tbaa !123
  store i32 %1, ptr %5, align 4, !tbaa !10
  %6 = load i32, ptr %5, align 4, !tbaa !10
  %7 = icmp sle i32 %6, 0
  br i1 %7, label %8, label %11

8:                                                ; preds = %2
  store i32 0, ptr %5, align 4, !tbaa !10
  %9 = load ptr, ptr %4, align 8, !tbaa !123
  %10 = getelementptr inbounds nuw %struct._BBuf, ptr %9, i32 0, i32 0
  store ptr null, ptr %10, align 8, !tbaa !127
  br label %23

11:                                               ; preds = %2
  %12 = load i32, ptr %5, align 4, !tbaa !10
  %13 = sext i32 %12 to i64
  %14 = call noalias ptr @malloc(i64 noundef %13) #9
  %15 = load ptr, ptr %4, align 8, !tbaa !123
  %16 = getelementptr inbounds nuw %struct._BBuf, ptr %15, i32 0, i32 0
  store ptr %14, ptr %16, align 8, !tbaa !127
  %17 = load ptr, ptr %4, align 8, !tbaa !123
  %18 = getelementptr inbounds nuw %struct._BBuf, ptr %17, i32 0, i32 0
  %19 = load ptr, ptr %18, align 8, !tbaa !127
  %20 = icmp eq ptr %19, null
  br i1 %20, label %21, label %22

21:                                               ; preds = %11
  store i32 -5, ptr %3, align 4
  br label %29

22:                                               ; preds = %11
  br label %23

23:                                               ; preds = %22, %8
  %24 = load i32, ptr %5, align 4, !tbaa !10
  %25 = load ptr, ptr %4, align 8, !tbaa !123
  %26 = getelementptr inbounds nuw %struct._BBuf, ptr %25, i32 0, i32 2
  store i32 %24, ptr %26, align 4, !tbaa !124
  %27 = load ptr, ptr %4, align 8, !tbaa !123
  %28 = getelementptr inbounds nuw %struct._BBuf, ptr %27, i32 0, i32 1
  store i32 0, ptr %28, align 8, !tbaa !126
  store i32 0, ptr %3, align 4
  br label %29

29:                                               ; preds = %23, %21
  %30 = load i32, ptr %3, align 4
  ret i32 %30
}

; Function Attrs: nounwind uwtable
define dso_local void @onig_node_str_clear(ptr noundef %0, i32 noundef %1) #0 {
  %3 = alloca ptr, align 8
  %4 = alloca i32, align 4
  store ptr %0, ptr %3, align 8, !tbaa !111
  store i32 %1, ptr %4, align 4, !tbaa !10
  %5 = load i32, ptr %4, align 4, !tbaa !10
  %6 = icmp ne i32 %5, 0
  br i1 %6, label %7, label %34

7:                                                ; preds = %2
  %8 = load ptr, ptr %3, align 8, !tbaa !111
  %9 = getelementptr inbounds nuw %struct._Node, ptr %8, i32 0, i32 0
  %10 = getelementptr inbounds nuw %struct.StrNode, ptr %9, i32 0, i32 7
  %11 = load i32, ptr %10, align 4, !tbaa !12
  %12 = icmp ne i32 %11, 0
  br i1 %12, label %13, label %34

13:                                               ; preds = %7
  %14 = load ptr, ptr %3, align 8, !tbaa !111
  %15 = getelementptr inbounds nuw %struct._Node, ptr %14, i32 0, i32 0
  %16 = getelementptr inbounds nuw %struct.StrNode, ptr %15, i32 0, i32 3
  %17 = load ptr, ptr %16, align 8, !tbaa !12
  %18 = icmp ne ptr %17, null
  br i1 %18, label %19, label %34

19:                                               ; preds = %13
  %20 = load ptr, ptr %3, align 8, !tbaa !111
  %21 = getelementptr inbounds nuw %struct._Node, ptr %20, i32 0, i32 0
  %22 = getelementptr inbounds nuw %struct.StrNode, ptr %21, i32 0, i32 3
  %23 = load ptr, ptr %22, align 8, !tbaa !12
  %24 = load ptr, ptr %3, align 8, !tbaa !111
  %25 = getelementptr inbounds nuw %struct._Node, ptr %24, i32 0, i32 0
  %26 = getelementptr inbounds nuw %struct.StrNode, ptr %25, i32 0, i32 6
  %27 = getelementptr inbounds [24 x i8], ptr %26, i64 0, i64 0
  %28 = icmp ne ptr %23, %27
  br i1 %28, label %29, label %34

29:                                               ; preds = %19
  %30 = load ptr, ptr %3, align 8, !tbaa !111
  %31 = getelementptr inbounds nuw %struct._Node, ptr %30, i32 0, i32 0
  %32 = getelementptr inbounds nuw %struct.StrNode, ptr %31, i32 0, i32 3
  %33 = load ptr, ptr %32, align 8, !tbaa !12
  call void @free(ptr noundef %33) #8
  br label %34

34:                                               ; preds = %29, %19, %13, %7, %2
  %35 = load ptr, ptr %3, align 8, !tbaa !111
  %36 = getelementptr inbounds nuw %struct._Node, ptr %35, i32 0, i32 0
  %37 = getelementptr inbounds nuw %struct.StrNode, ptr %36, i32 0, i32 5
  store i32 0, ptr %37, align 8, !tbaa !12
  %38 = load ptr, ptr %3, align 8, !tbaa !111
  %39 = getelementptr inbounds nuw %struct._Node, ptr %38, i32 0, i32 0
  %40 = getelementptr inbounds nuw %struct.StrNode, ptr %39, i32 0, i32 6
  %41 = getelementptr inbounds [24 x i8], ptr %40, i64 0, i64 0
  %42 = load ptr, ptr %3, align 8, !tbaa !111
  %43 = getelementptr inbounds nuw %struct._Node, ptr %42, i32 0, i32 0
  %44 = getelementptr inbounds nuw %struct.StrNode, ptr %43, i32 0, i32 3
  store ptr %41, ptr %44, align 8, !tbaa !12
  %45 = load ptr, ptr %3, align 8, !tbaa !111
  %46 = getelementptr inbounds nuw %struct._Node, ptr %45, i32 0, i32 0
  %47 = getelementptr inbounds nuw %struct.StrNode, ptr %46, i32 0, i32 6
  %48 = getelementptr inbounds [24 x i8], ptr %47, i64 0, i64 0
  %49 = load ptr, ptr %3, align 8, !tbaa !111
  %50 = getelementptr inbounds nuw %struct._Node, ptr %49, i32 0, i32 0
  %51 = getelementptr inbounds nuw %struct.StrNode, ptr %50, i32 0, i32 4
  store ptr %48, ptr %51, align 8, !tbaa !12
  %52 = load ptr, ptr %3, align 8, !tbaa !111
  %53 = getelementptr inbounds nuw %struct._Node, ptr %52, i32 0, i32 0
  %54 = getelementptr inbounds nuw %struct.StrNode, ptr %53, i32 0, i32 7
  store i32 0, ptr %54, align 4, !tbaa !12
  ret void
}

; Function Attrs: nounwind uwtable
define internal i32 @bbuf_clone(ptr noundef %0, ptr noundef %1) #0 {
  %3 = alloca i32, align 4
  %4 = alloca ptr, align 8
  %5 = alloca ptr, align 8
  %6 = alloca i32, align 4
  %7 = alloca ptr, align 8
  %8 = alloca i32, align 4
  store ptr %0, ptr %4, align 8, !tbaa !121
  store ptr %1, ptr %5, align 8, !tbaa !123
  call void @llvm.lifetime.start.p0(i64 4, ptr %6) #8
  call void @llvm.lifetime.start.p0(i64 8, ptr %7) #8
  %9 = call noalias ptr @malloc(i64 noundef 16) #9
  store ptr %9, ptr %7, align 8, !tbaa !123
  %10 = load ptr, ptr %4, align 8, !tbaa !121
  store ptr %9, ptr %10, align 8, !tbaa !123
  %11 = load ptr, ptr %7, align 8, !tbaa !123
  %12 = icmp eq ptr %11, null
  br i1 %12, label %13, label %14

13:                                               ; preds = %2
  store i32 -5, ptr %3, align 4
  store i32 1, ptr %8, align 4
  br label %42

14:                                               ; preds = %2
  %15 = load ptr, ptr %7, align 8, !tbaa !123
  %16 = load ptr, ptr %5, align 8, !tbaa !123
  %17 = getelementptr inbounds nuw %struct._BBuf, ptr %16, i32 0, i32 2
  %18 = load i32, ptr %17, align 4, !tbaa !124
  %19 = call i32 @bbuf_init(ptr noundef %15, i32 noundef %18)
  store i32 %19, ptr %6, align 4, !tbaa !10
  %20 = load i32, ptr %6, align 4, !tbaa !10
  %21 = icmp ne i32 %20, 0
  br i1 %21, label %22, label %26

22:                                               ; preds = %14
  %23 = load ptr, ptr %7, align 8, !tbaa !123
  call void @bbuf_free(ptr noundef %23)
  %24 = load ptr, ptr %4, align 8, !tbaa !121
  store ptr null, ptr %24, align 8, !tbaa !123
  %25 = load i32, ptr %6, align 4, !tbaa !10
  store i32 %25, ptr %3, align 4
  store i32 1, ptr %8, align 4
  br label %42

26:                                               ; preds = %14
  %27 = load ptr, ptr %5, align 8, !tbaa !123
  %28 = getelementptr inbounds nuw %struct._BBuf, ptr %27, i32 0, i32 1
  %29 = load i32, ptr %28, align 8, !tbaa !126
  %30 = load ptr, ptr %7, align 8, !tbaa !123
  %31 = getelementptr inbounds nuw %struct._BBuf, ptr %30, i32 0, i32 1
  store i32 %29, ptr %31, align 8, !tbaa !126
  %32 = load ptr, ptr %7, align 8, !tbaa !123
  %33 = getelementptr inbounds nuw %struct._BBuf, ptr %32, i32 0, i32 0
  %34 = load ptr, ptr %33, align 8, !tbaa !127
  %35 = load ptr, ptr %5, align 8, !tbaa !123
  %36 = getelementptr inbounds nuw %struct._BBuf, ptr %35, i32 0, i32 0
  %37 = load ptr, ptr %36, align 8, !tbaa !127
  %38 = load ptr, ptr %5, align 8, !tbaa !123
  %39 = getelementptr inbounds nuw %struct._BBuf, ptr %38, i32 0, i32 1
  %40 = load i32, ptr %39, align 8, !tbaa !126
  %41 = zext i32 %40 to i64
  call void @llvm.memcpy.p0.p0.i64(ptr align 1 %34, ptr align 1 %37, i64 %41, i1 false)
  store i32 0, ptr %3, align 4
  store i32 1, ptr %8, align 4
  br label %42

42:                                               ; preds = %26, %22, %13
  call void @llvm.lifetime.end.p0(i64 8, ptr %7) #8
  call void @llvm.lifetime.end.p0(i64 4, ptr %6) #8
  %43 = load i32, ptr %3, align 4
  ret i32 %43
}

; Function Attrs: nounwind uwtable
define dso_local void @onig_node_free(ptr noundef %0) #0 {
  %2 = alloca ptr, align 8
  store ptr %0, ptr %2, align 8, !tbaa !111
  %3 = load ptr, ptr %2, align 8, !tbaa !111
  %4 = icmp eq ptr %3, null
  br i1 %4, label %5, label %6

5:                                                ; preds = %1
  br label %9

6:                                                ; preds = %1
  %7 = load ptr, ptr %2, align 8, !tbaa !111
  call void @node_free_body(ptr noundef %7)
  %8 = load ptr, ptr %2, align 8, !tbaa !111
  call void @free(ptr noundef %8) #8
  br label %9

9:                                                ; preds = %6, %5
  ret void
}

; Function Attrs: nounwind uwtable
define dso_local i32 @onig_node_str_set(ptr noundef %0, ptr noundef %1, ptr noundef %2, i32 noundef %3) #0 {
  %5 = alloca ptr, align 8
  %6 = alloca ptr, align 8
  %7 = alloca ptr, align 8
  %8 = alloca i32, align 4
  store ptr %0, ptr %5, align 8, !tbaa !111
  store ptr %1, ptr %6, align 8, !tbaa !4
  store ptr %2, ptr %7, align 8, !tbaa !4
  store i32 %3, ptr %8, align 4, !tbaa !10
  %9 = load ptr, ptr %5, align 8, !tbaa !111
  %10 = load i32, ptr %8, align 4, !tbaa !10
  call void @onig_node_str_clear(ptr noundef %9, i32 noundef %10)
  %11 = load ptr, ptr %5, align 8, !tbaa !111
  %12 = load ptr, ptr %6, align 8, !tbaa !4
  %13 = load ptr, ptr %7, align 8, !tbaa !4
  %14 = call i32 @onig_node_str_cat(ptr noundef %11, ptr noundef %12, ptr noundef %13)
  ret i32 %14
}

; Function Attrs: nounwind uwtable
define internal ptr @node_new() #0 {
  %1 = alloca ptr, align 8
  %2 = alloca ptr, align 8
  %3 = alloca i32, align 4
  call void @llvm.lifetime.start.p0(i64 8, ptr %2) #8
  %4 = call noalias ptr @malloc(i64 noundef 72) #9
  store ptr %4, ptr %2, align 8, !tbaa !111
  %5 = load ptr, ptr %2, align 8, !tbaa !111
  %6 = icmp eq ptr %5, null
  br i1 %6, label %7, label %8

7:                                                ; preds = %0
  store ptr null, ptr %1, align 8
  store i32 1, ptr %3, align 4
  br label %11

8:                                                ; preds = %0
  %9 = load ptr, ptr %2, align 8, !tbaa !111
  call void @llvm.memset.p0.i64(ptr align 8 %9, i8 0, i64 72, i1 false)
  %10 = load ptr, ptr %2, align 8, !tbaa !111
  store ptr %10, ptr %1, align 8
  store i32 1, ptr %3, align 4
  br label %11

11:                                               ; preds = %8, %7
  call void @llvm.lifetime.end.p0(i64 8, ptr %2) #8
  %12 = load ptr, ptr %1, align 8
  ret ptr %12
}

; Function Attrs: nounwind uwtable
define dso_local i32 @onig_node_copy(ptr noundef %0, ptr noundef %1) #0 {
  %3 = alloca i32, align 4
  %4 = alloca ptr, align 8
  %5 = alloca ptr, align 8
  %6 = alloca i32, align 4
  %7 = alloca ptr, align 8
  %8 = alloca i32, align 4
  %9 = alloca ptr, align 8
  %10 = alloca ptr, align 8
  store ptr %0, ptr %4, align 8, !tbaa !119
  store ptr %1, ptr %5, align 8, !tbaa !111
  call void @llvm.lifetime.start.p0(i64 4, ptr %6) #8
  call void @llvm.lifetime.start.p0(i64 8, ptr %7) #8
  %11 = load ptr, ptr %4, align 8, !tbaa !119
  store ptr null, ptr %11, align 8, !tbaa !111
  %12 = load ptr, ptr %5, align 8, !tbaa !111
  %13 = getelementptr inbounds nuw %struct._Node, ptr %12, i32 0, i32 0
  %14 = getelementptr inbounds nuw %struct.anon.3, ptr %13, i32 0, i32 0
  %15 = load i32, ptr %14, align 8, !tbaa !12
  switch i32 %15, label %18 [
    i32 7, label %16
    i32 8, label %16
    i32 6, label %16
    i32 0, label %17
    i32 1, label %17
    i32 2, label %17
  ]

16:                                               ; preds = %2, %2, %2
  br label %19

17:                                               ; preds = %2, %2, %2
  br label %19

18:                                               ; preds = %2
  store i32 -6, ptr %3, align 4
  store i32 1, ptr %8, align 4
  br label %77

19:                                               ; preds = %17, %16
  %20 = call ptr @node_new()
  store ptr %20, ptr %7, align 8, !tbaa !111
  %21 = load ptr, ptr %7, align 8, !tbaa !111
  %22 = icmp eq ptr %21, null
  br i1 %22, label %23, label %24

23:                                               ; preds = %19
  store i32 -5, ptr %3, align 4
  store i32 1, ptr %8, align 4
  br label %77

24:                                               ; preds = %19
  %25 = load ptr, ptr %7, align 8, !tbaa !111
  %26 = load ptr, ptr %5, align 8, !tbaa !111
  call void @llvm.memcpy.p0.p0.i64(ptr align 8 %25, ptr align 8 %26, i64 72, i1 false)
  %27 = load ptr, ptr %7, align 8, !tbaa !111
  %28 = getelementptr inbounds nuw %struct._Node, ptr %27, i32 0, i32 0
  %29 = getelementptr inbounds nuw %struct.anon.3, ptr %28, i32 0, i32 0
  %30 = load i32, ptr %29, align 8, !tbaa !12
  switch i32 %30, label %73 [
    i32 0, label %31
    i32 1, label %49
  ]

31:                                               ; preds = %24
  %32 = load ptr, ptr %7, align 8, !tbaa !111
  %33 = load ptr, ptr %5, align 8, !tbaa !111
  %34 = getelementptr inbounds nuw %struct._Node, ptr %33, i32 0, i32 0
  %35 = getelementptr inbounds nuw %struct.StrNode, ptr %34, i32 0, i32 3
  %36 = load ptr, ptr %35, align 8, !tbaa !12
  %37 = load ptr, ptr %5, align 8, !tbaa !111
  %38 = getelementptr inbounds nuw %struct._Node, ptr %37, i32 0, i32 0
  %39 = getelementptr inbounds nuw %struct.StrNode, ptr %38, i32 0, i32 4
  %40 = load ptr, ptr %39, align 8, !tbaa !12
  %41 = call i32 @onig_node_str_set(ptr noundef %32, ptr noundef %36, ptr noundef %40, i32 noundef 0)
  store i32 %41, ptr %6, align 4, !tbaa !10
  %42 = load i32, ptr %6, align 4, !tbaa !10
  %43 = icmp ne i32 %42, 0
  br i1 %43, label %44, label %48

44:                                               ; preds = %31
  br label %45

45:                                               ; preds = %70, %44
  %46 = load ptr, ptr %7, align 8, !tbaa !111
  call void @onig_node_free(ptr noundef %46)
  %47 = load i32, ptr %6, align 4, !tbaa !10
  store i32 %47, ptr %3, align 4
  store i32 1, ptr %8, align 4
  br label %77

48:                                               ; preds = %31
  br label %74

49:                                               ; preds = %24
  call void @llvm.lifetime.start.p0(i64 8, ptr %9) #8
  call void @llvm.lifetime.start.p0(i64 8, ptr %10) #8
  %50 = load ptr, ptr %5, align 8, !tbaa !111
  %51 = getelementptr inbounds nuw %struct._Node, ptr %50, i32 0, i32 0
  store ptr %51, ptr %9, align 8, !tbaa !9
  %52 = load ptr, ptr %7, align 8, !tbaa !111
  %53 = getelementptr inbounds nuw %struct._Node, ptr %52, i32 0, i32 0
  store ptr %53, ptr %10, align 8, !tbaa !9
  %54 = load ptr, ptr %9, align 8, !tbaa !9
  %55 = getelementptr inbounds nuw %struct.CClassNode, ptr %54, i32 0, i32 5
  %56 = load ptr, ptr %55, align 8, !tbaa !114
  %57 = icmp ne ptr %56, null
  br i1 %57, label %58, label %69

58:                                               ; preds = %49
  %59 = load ptr, ptr %10, align 8, !tbaa !9
  %60 = getelementptr inbounds nuw %struct.CClassNode, ptr %59, i32 0, i32 5
  %61 = load ptr, ptr %9, align 8, !tbaa !9
  %62 = getelementptr inbounds nuw %struct.CClassNode, ptr %61, i32 0, i32 5
  %63 = load ptr, ptr %62, align 8, !tbaa !114
  %64 = call i32 @bbuf_clone(ptr noundef %60, ptr noundef %63)
  store i32 %64, ptr %6, align 4, !tbaa !10
  %65 = load i32, ptr %6, align 4, !tbaa !10
  %66 = icmp ne i32 %65, 0
  br i1 %66, label %67, label %68

67:                                               ; preds = %58
  store i32 4, ptr %8, align 4
  br label %70

68:                                               ; preds = %58
  br label %69

69:                                               ; preds = %68, %49
  store i32 0, ptr %8, align 4
  br label %70

70:                                               ; preds = %69, %67
  call void @llvm.lifetime.end.p0(i64 8, ptr %10) #8
  call void @llvm.lifetime.end.p0(i64 8, ptr %9) #8
  %71 = load i32, ptr %8, align 4
  switch i32 %71, label %79 [
    i32 0, label %72
    i32 4, label %45
  ]

72:                                               ; preds = %70
  br label %74

73:                                               ; preds = %24
  br label %74

74:                                               ; preds = %73, %72, %48
  %75 = load ptr, ptr %7, align 8, !tbaa !111
  %76 = load ptr, ptr %4, align 8, !tbaa !119
  store ptr %75, ptr %76, align 8, !tbaa !111
  store i32 0, ptr %3, align 4
  store i32 1, ptr %8, align 4
  br label %77

77:                                               ; preds = %74, %45, %23, %18
  call void @llvm.lifetime.end.p0(i64 8, ptr %7) #8
  call void @llvm.lifetime.end.p0(i64 4, ptr %6) #8
  %78 = load i32, ptr %3, align 4
  ret i32 %78

79:                                               ; preds = %70
  unreachable
}